; Function Attrs: mustprogress uwtable
define void @_ZN6duckdb21PhysicalPlanGenerator10CreatePlanERNS_15LogicalDelimGetE(ptr dead_on_unwind noalias nocapture writable writeonly sret(%"class.duckdb::unique_ptr") align 8 %agg.result, ptr nocapture noundef nonnull readnone align 8 dereferenceable(176) %this, ptr noundef nonnull align 8 dereferenceable(136) %op) local_unnamed_addr #0 align 2 personality ptr @__gxx_personality_v0 {
_ZNSt10unique_ptrIN6duckdb22PhysicalColumnDataScanESt14default_deleteIS1_EED2Ev.exit:
  %ref.tmp = alloca i8, align 1
  %types = getelementptr inbounds i8, ptr %op, i64 64
  call void @llvm.lifetime.start.p0(i64 1, ptr nonnull %ref.tmp) #20
  store i8 27, ptr %ref.tmp, align 1, !tbaa !298
  %estimated_cardinality = getelementptr inbounds i8, ptr %op, i64 88
  call void @_ZN6duckdb9make_uniqINS_22PhysicalColumnDataScanEJRNS_6vectorINS_11LogicalTypeELb1EEENS_20PhysicalOperatorTypeERmEEENS_11__unique_ifIT_Lb1EE15__unique_singleEDpOT0_(ptr dead_on_unwind nonnull writable sret(%"class.duckdb::unique_ptr.325") align 8 %agg.result, ptr noundef nonnull align 8 dereferenceable(24) %types, ptr noundef nonnull align 1 dereferenceable(1) %ref.tmp, ptr noundef nonnull align 8 dereferenceable(8) %estimated_cardinality)
  call void @llvm.lifetime.end.p0(i64 1, ptr nonnull %ref.tmp) #20
  ret void
}